; Function Attrs: nounwind uwtable
define ptr @l_List_foldl___at___private_Lean_Elab_PatternVar_0__Lean_Elab_Term_CollectPatternVars_throwCtorExpected_showName___spec__3___at___private_Lean_Elab_PatternVar_0__Lean_Elab_Term_CollectPatternVars_throwCtorExpected_showName___spec__4(ptr noundef %0, ptr noundef %1) local_unnamed_addr #0 {
  br label %l_Lean_RBNode_insert___at___private_Lean_Elab_PatternVar_0__Lean_Elab_Term_CollectPatternVars_throwCtorExpected_showName___spec__1.exit

l_Lean_RBNode_insert___at___private_Lean_Elab_PatternVar_0__Lean_Elab_Term_CollectPatternVars_throwCtorExpected_showName___spec__1.exit: ; preds = %l_Lean_RBNode_insert___at___private_Lean_Elab_PatternVar_0__Lean_Elab_Term_CollectPatternVars_throwCtorExpected_showName___spec__1.exit.backedge, %2
  %.017 = phi ptr [ %1, %2 ], [ %25, %l_Lean_RBNode_insert___at___private_Lean_Elab_PatternVar_0__Lean_Elab_Term_CollectPatternVars_throwCtorExpected_showName___spec__1.exit.backedge ]
  %.0 = phi ptr [ %0, %2 ], [ %.0.be, %l_Lean_RBNode_insert___at___private_Lean_Elab_PatternVar_0__Lean_Elab_Term_CollectPatternVars_throwCtorExpected_showName___spec__1.exit.backedge ]
  %3 = ptrtoint ptr %.017 to i64
  %4 = and i64 %3, 1
  %.not.i24 = icmp eq i64 %4, 0
  br i1 %.not.i24, label %8, label %5

5:                                                ; preds = %l_Lean_RBNode_insert___at___private_Lean_Elab_PatternVar_0__Lean_Elab_Term_CollectPatternVars_throwCtorExpected_showName___spec__1.exit
  %6 = lshr i64 %3, 1
  %7 = trunc i64 %6 to i32
  br label %lean_obj_tag.exit

8:                                                ; preds = %l_Lean_RBNode_insert___at___private_Lean_Elab_PatternVar_0__Lean_Elab_Term_CollectPatternVars_throwCtorExpected_showName___spec__1.exit
  %9 = getelementptr i8, ptr %.017, i64 4
  %.val.i = load i32, ptr %9, align 4
  %10 = lshr i32 %.val.i, 24
  br label %lean_obj_tag.exit

lean_obj_tag.exit:                                ; preds = %5, %8
  %.0.i = phi i32 [ %7, %5 ], [ %10, %8 ]
  %11 = icmp eq i32 %.0.i, 0
  br i1 %11, label %12, label %13

12:                                               ; preds = %lean_obj_tag.exit
  ret ptr %.0

13:                                               ; preds = %lean_obj_tag.exit
  %14 = getelementptr inbounds nuw i8, ptr %.017, i64 8
  %15 = load ptr, ptr %14, align 8, !tbaa !11
  %16 = ptrtoint ptr %15 to i64
  %17 = and i64 %16, 1
  %.not = icmp eq i64 %17, 0
  br i1 %.not, label %18, label %lean_inc.exit21

18:                                               ; preds = %13
  %.val.i25 = load i32, ptr %15, align 4, !tbaa !8
  %19 = icmp sgt i32 %.val.i25, 0
  br i1 %19, label %20, label %22, !prof !15

20:                                               ; preds = %18
  %21 = add nuw i32 %.val.i25, 1
  store i32 %21, ptr %15, align 4, !tbaa !8
  br label %lean_inc.exit21

22:                                               ; preds = %18
  %.not.i26 = icmp eq i32 %.val.i25, 0
  br i1 %.not.i26, label %lean_inc.exit21, label %23

23:                                               ; preds = %22
  tail call void @lean_inc_ref_cold(ptr noundef nonnull %15) #6
  br label %lean_inc.exit21

lean_inc.exit21:                                  ; preds = %23, %22, %20, %13
  %24 = getelementptr inbounds nuw i8, ptr %.017, i64 16
  %25 = load ptr, ptr %24, align 8, !tbaa !11
  %26 = ptrtoint ptr %25 to i64
  %27 = and i64 %26, 1
  %.not37 = icmp eq i64 %27, 0
  br i1 %.not37, label %28, label %lean_inc.exit20

28:                                               ; preds = %lean_inc.exit21
  %.val.i27 = load i32, ptr %25, align 4, !tbaa !8
  %29 = icmp sgt i32 %.val.i27, 0
  br i1 %29, label %30, label %32, !prof !15

30:                                               ; preds = %28
  %31 = add nuw i32 %.val.i27, 1
  store i32 %31, ptr %25, align 4, !tbaa !8
  br label %lean_inc.exit20

32:                                               ; preds = %28
  %.not.i28 = icmp eq i32 %.val.i27, 0
  br i1 %.not.i28, label %lean_inc.exit20, label %33

33:                                               ; preds = %32
  tail call void @lean_inc_ref_cold(ptr noundef nonnull %25) #6
  br label %lean_inc.exit20

lean_inc.exit20:                                  ; preds = %33, %32, %30, %lean_inc.exit21
  br i1 %.not.i24, label %34, label %lean_dec.exit18

34:                                               ; preds = %lean_inc.exit20
  %35 = load i32, ptr %.017, align 4, !tbaa !8
  %36 = icmp sgt i32 %35, 1
  br i1 %36, label %37, label %39, !prof !15

37:                                               ; preds = %34
  %38 = add nsw i32 %35, -1
  store i32 %38, ptr %.017, align 4, !tbaa !8
  br label %lean_dec.exit18

39:                                               ; preds = %34
  %.not.i = icmp eq i32 %35, 0
  br i1 %.not.i, label %lean_dec.exit18, label %40

40:                                               ; preds = %39
  tail call void @lean_dec_ref_cold(ptr noundef nonnull %.017) #6
  br label %lean_dec.exit18

lean_dec.exit18:                                  ; preds = %40, %39, %37, %lean_inc.exit20
  %41 = getelementptr inbounds nuw i8, ptr %15, i64 8
  %42 = load ptr, ptr %41, align 8, !tbaa !11
  %43 = ptrtoint ptr %42 to i64
  %44 = and i64 %43, 1
  %.not39 = icmp eq i64 %44, 0
  br i1 %.not39, label %45, label %lean_inc.exit19

45:                                               ; preds = %lean_dec.exit18
  %.val.i30 = load i32, ptr %42, align 4, !tbaa !8
  %46 = icmp sgt i32 %.val.i30, 0
  br i1 %46, label %47, label %49, !prof !15

47:                                               ; preds = %45
  %48 = add nuw i32 %.val.i30, 1
  store i32 %48, ptr %42, align 4, !tbaa !8
  br label %lean_inc.exit19

49:                                               ; preds = %45
  %.not.i31 = icmp eq i32 %.val.i30, 0
  br i1 %.not.i31, label %lean_inc.exit19, label %50

50:                                               ; preds = %49
  tail call void @lean_inc_ref_cold(ptr noundef nonnull %42) #6
  br label %lean_inc.exit19

lean_inc.exit19:                                  ; preds = %50, %49, %47, %lean_dec.exit18
  %51 = getelementptr inbounds nuw i8, ptr %15, i64 16
  %52 = load ptr, ptr %51, align 8, !tbaa !11
  %53 = ptrtoint ptr %52 to i64
  %54 = and i64 %53, 1
  %.not40 = icmp eq i64 %54, 0
  br i1 %.not40, label %55, label %lean_inc.exit

55:                                               ; preds = %lean_inc.exit19
  %.val.i33 = load i32, ptr %52, align 4, !tbaa !8
  %56 = icmp sgt i32 %.val.i33, 0
  br i1 %56, label %57, label %59, !prof !15

57:                                               ; preds = %55
  %58 = add nuw i32 %.val.i33, 1
  store i32 %58, ptr %52, align 4, !tbaa !8
  br label %lean_inc.exit

59:                                               ; preds = %55
  %.not.i34 = icmp eq i32 %.val.i33, 0
  br i1 %.not.i34, label %lean_inc.exit, label %60

60:                                               ; preds = %59
  tail call void @lean_inc_ref_cold(ptr noundef nonnull %52) #6
  br label %lean_inc.exit

lean_inc.exit:                                    ; preds = %60, %59, %57, %lean_inc.exit19
  br i1 %.not, label %61, label %lean_dec.exit

61:                                               ; preds = %lean_inc.exit
  %62 = load i32, ptr %15, align 4, !tbaa !8
  %63 = icmp sgt i32 %62, 1
  br i1 %63, label %64, label %66, !prof !15

64:                                               ; preds = %61
  %65 = add nsw i32 %62, -1
  store i32 %65, ptr %15, align 4, !tbaa !8
  br label %lean_dec.exit

66:                                               ; preds = %61
  %.not.i22 = icmp eq i32 %62, 0
  br i1 %.not.i22, label %lean_dec.exit, label %67

67:                                               ; preds = %66
  tail call void @lean_dec_ref_cold(ptr noundef nonnull %15) #6
  br label %lean_dec.exit

lean_dec.exit:                                    ; preds = %67, %66, %64, %lean_inc.exit
  %68 = tail call zeroext i8 @l_Lean_RBNode_isRed___rarg(ptr noundef %.0) #6
  %69 = icmp eq i8 %68, 0
  %70 = tail call ptr @l_Lean_RBNode_ins___at___private_Lean_Elab_PatternVar_0__Lean_Elab_Term_CollectPatternVars_throwCtorExpected_showName___spec__2(ptr noundef %.0, ptr noundef %42, ptr noundef %52)
  br i1 %69, label %l_Lean_RBNode_insert___at___private_Lean_Elab_PatternVar_0__Lean_Elab_Term_CollectPatternVars_throwCtorExpected_showName___spec__1.exit.backedge, label %71

l_Lean_RBNode_insert___at___private_Lean_Elab_PatternVar_0__Lean_Elab_Term_CollectPatternVars_throwCtorExpected_showName___spec__1.exit.backedge: ; preds = %lean_dec.exit, %71
  %.0.be = phi ptr [ %70, %lean_dec.exit ], [ %72, %71 ]
  br label %l_Lean_RBNode_insert___at___private_Lean_Elab_PatternVar_0__Lean_Elab_Term_CollectPatternVars_throwCtorExpected_showName___spec__1.exit

71:                                               ; preds = %lean_dec.exit
  %72 = tail call ptr @l_Lean_RBNode_setBlack___rarg(ptr noundef %70) #6
  br label %l_Lean_RBNode_insert___at___private_Lean_Elab_PatternVar_0__Lean_Elab_Term_CollectPatternVars_throwCtorExpected_showName___spec__1.exit.backedge
}